; Function Attrs: mustprogress uwtable
define noundef zeroext i1 @_ZN3net11QuicSession23IsEncryptionEstablishedEv(ptr noundef nonnull align 8 dereferenceable(2044) %0) unnamed_addr #0 align 2 {
  %2 = load ptr, ptr %0, align 8, !tbaa !3
  %3 = getelementptr inbounds nuw i8, ptr %2, i64 288
  %4 = load ptr, ptr %3, align 8
  %5 = tail call noundef ptr %4(ptr noundef nonnull align 8 dereferenceable(2044) %0)
  %6 = getelementptr inbounds nuw i8, ptr %5, i64 392
  %7 = load i8, ptr %6, align 8, !tbaa !331, !range !256, !noundef !257
  %8 = trunc nuw i8 %7 to i1
  ret i1 %8
}